target datalayout = "e-m:e-p270:32:32-p271:32:32-p272:64:64-i64:64-i128:128-f80:128-n8:16:32:64-S128"
target triple = "x86_64-pc-linux-gnu"

%"class.std::__cxx11::basic_string" = type { %"struct.std::__cxx11::basic_string<char>::_Alloc_hider", i64, %union.anon }
%"struct.std::__cxx11::basic_string<char>::_Alloc_hider" = type { ptr }
%union.anon = type { i64, [8 x i8] }
%"class.rocksdb::Slice" = type { ptr, i64 }

; Function Attrs: mustprogress nounwind uwtable
define available_externally noundef ptr @_ZNKSt7__cxx1112basic_stringIcSt11char_traitsIcESaIcEE7_M_dataEv(ptr noundef nonnull align 8 dereferenceable(32) %0) #3 align 2 {
  %2 = alloca ptr, align 8
  store ptr %0, ptr %2, align 8, !tbaa !31
  %3 = load ptr, ptr %2, align 8
  %4 = getelementptr inbounds nuw %"class.std::__cxx11::basic_string", ptr %3, i32 0, i32 0
  %5 = getelementptr inbounds nuw %"struct.std::__cxx11::basic_string<char>::_Alloc_hider", ptr %4, i32 0, i32 0
  %6 = load ptr, ptr %5, align 8, !tbaa !135
  ret ptr %6
}

; Function Attrs: mustprogress uwtable
define available_externally void @_ZNSt7__cxx1112basic_stringIcSt11char_traitsIcESaIcEE6resizeEm(ptr noundef nonnull align 8 dereferenceable(32) %0, i64 noundef %1) #4 align 2 {
  %3 = alloca ptr, align 8
  %4 = alloca i64, align 8
  store ptr %0, ptr %3, align 8, !tbaa !31
  store i64 %1, ptr %4, align 8, !tbaa !4
  %5 = load ptr, ptr %3, align 8
  %6 = load i64, ptr %4, align 8, !tbaa !4
  call void @_ZNSt7__cxx1112basic_stringIcSt11char_traitsIcESaIcEE6resizeEmc(ptr noundef nonnull align 8 dereferenceable(32) %5, i64 noundef %6, i8 noundef signext 0)
  ret void
}

; Function Attrs: mustprogress nounwind uwtable
define linkonce_odr noundef signext i8 @_ZNK7rocksdb5SliceixEm(ptr noundef nonnull align 8 dereferenceable(16) %0, i64 noundef %1) #3 comdat align 2 {
  %3 = alloca ptr, align 8
  %4 = alloca i64, align 8
  store ptr %0, ptr %3, align 8, !tbaa !13
  store i64 %1, ptr %4, align 8, !tbaa !4
  %5 = load ptr, ptr %3, align 8
  %6 = getelementptr inbounds nuw %"class.rocksdb::Slice", ptr %5, i32 0, i32 0
  %7 = load ptr, ptr %6, align 8, !tbaa !15
  %8 = load i64, ptr %4, align 8, !tbaa !4
  %9 = getelementptr inbounds nuw i8, ptr %7, i64 %8
  %10 = load i8, ptr %9, align 1, !tbaa !86
  ret i8 %10
}

; Function Attrs: mustprogress nounwind uwtable
define available_externally noundef nonnull align 1 dereferenceable(1) ptr @_ZNSt7__cxx1112basic_stringIcSt11char_traitsIcESaIcEEixEm(ptr noundef nonnull align 8 dereferenceable(32) %0, i64 noundef %1) #3 align 2 {
  %3 = alloca ptr, align 8
  %4 = alloca i64, align 8
  store ptr %0, ptr %3, align 8, !tbaa !31
  store i64 %1, ptr %4, align 8, !tbaa !4
  %5 = load ptr, ptr %3, align 8
  br label %6

6:                                                ; preds = %2
  br label %7

7:                                                ; preds = %6
  %8 = call noundef ptr @_ZNKSt7__cxx1112basic_stringIcSt11char_traitsIcESaIcEE7_M_dataEv(ptr noundef nonnull align 8 dereferenceable(32) %5)
  %9 = load i64, ptr %4, align 8, !tbaa !4
  %10 = getelementptr inbounds nuw i8, ptr %8, i64 %9
  ret ptr %10
}

; Function Attrs: inlinehint mustprogress nounwind uwtable
define linkonce_odr noundef nonnull align 8 dereferenceable(8) ptr @_ZSt3minImERKT_S2_S2_(ptr noundef nonnull align 8 dereferenceable(8) %0, ptr noundef nonnull align 8 dereferenceable(8) %1) #1 comdat {
  %3 = alloca ptr, align 8
  %4 = alloca ptr, align 8
  %5 = alloca ptr, align 8
  store ptr %0, ptr %4, align 8, !tbaa !29
  store ptr %1, ptr %5, align 8, !tbaa !29
  %6 = load ptr, ptr %5, align 8, !tbaa !29
  %7 = load i64, ptr %6, align 8, !tbaa !4
  %8 = load ptr, ptr %4, align 8, !tbaa !29
  %9 = load i64, ptr %8, align 8, !tbaa !4
  %10 = icmp ult i64 %7, %9
  br i1 %10, label %11, label %13

11:                                               ; preds = %2
  %12 = load ptr, ptr %5, align 8, !tbaa !29
  store ptr %12, ptr %3, align 8
  br label %15

13:                                               ; preds = %2
  %14 = load ptr, ptr %4, align 8, !tbaa !29
  store ptr %14, ptr %3, align 8
  br label %15

15:                                               ; preds = %13, %11
  %16 = load ptr, ptr %3, align 8
  ret ptr %16
}

; Function Attrs: mustprogress nounwind uwtable
define linkonce_odr noundef i64 @_ZNK7rocksdb5Slice4sizeEv(ptr noundef nonnull align 8 dereferenceable(16) %0) #3 comdat align 2 {
  %2 = alloca ptr, align 8
  store ptr %0, ptr %2, align 8, !tbaa !13
  %3 = load ptr, ptr %2, align 8
  %4 = getelementptr inbounds nuw %"class.rocksdb::Slice", ptr %3, i32 0, i32 1
  %5 = load i64, ptr %4, align 8, !tbaa !17
  ret i64 %5
}

; Function Attrs: mustprogress nounwind uwtable
define available_externally noundef i64 @_ZNKSt7__cxx1112basic_stringIcSt11char_traitsIcESaIcEE4sizeEv(ptr noundef nonnull align 8 dereferenceable(32) %0) #3 align 2 {
  %2 = alloca ptr, align 8
  store ptr %0, ptr %2, align 8, !tbaa !31
  %3 = load ptr, ptr %2, align 8
  %4 = getelementptr inbounds nuw %"class.std::__cxx11::basic_string", ptr %3, i32 0, i32 1
  %5 = load i64, ptr %4, align 8, !tbaa !140
  ret i64 %5
}

; Function Attrs: mustprogress uwtable
define internal void @_ZNK7rocksdb12_GLOBAL__N_129ReverseBytewiseComparatorImpl21FindShortestSeparatorEPNSt7__cxx1112basic_stringIcSt11char_traitsIcESaIcEEERKNS_5SliceE(ptr noundef nonnull align 8 dereferenceable(48) %0, ptr noundef %1, ptr noundef nonnull align 8 dereferenceable(16) %2) unnamed_addr #4 align 2 {
  %4 = alloca ptr, align 8
  %5 = alloca ptr, align 8
  %6 = alloca ptr, align 8
  %7 = alloca i64, align 8
  %8 = alloca i64, align 8
  %9 = alloca i64, align 8
  %10 = alloca i64, align 8
  %11 = alloca i8, align 1
  %12 = alloca i8, align 1
  store ptr %0, ptr %4, align 8, !tbaa !23
  store ptr %1, ptr %5, align 8, !tbaa !31
  store ptr %2, ptr %6, align 8, !tbaa !13
  call void @llvm.lifetime.start.p0(i64 8, ptr %7) #5
  call void @llvm.lifetime.start.p0(i64 8, ptr %8) #5
  %13 = load ptr, ptr %5, align 8, !tbaa !31
  %14 = call noundef i64 @_ZNKSt7__cxx1112basic_stringIcSt11char_traitsIcESaIcEE4sizeEv(ptr noundef nonnull align 8 dereferenceable(32) %13) #5
  store i64 %14, ptr %8, align 8, !tbaa !4
  call void @llvm.lifetime.start.p0(i64 8, ptr %9) #5
  %15 = load ptr, ptr %6, align 8, !tbaa !13
  %16 = call noundef i64 @_ZNK7rocksdb5Slice4sizeEv(ptr noundef nonnull align 8 dereferenceable(16) %15)
  store i64 %16, ptr %9, align 8, !tbaa !4
  %17 = call noundef nonnull align 8 dereferenceable(8) ptr @_ZSt3minImERKT_S2_S2_(ptr noundef nonnull align 8 dereferenceable(8) %8, ptr noundef nonnull align 8 dereferenceable(8) %9)
  %18 = load i64, ptr %17, align 8, !tbaa !4
  call void @llvm.lifetime.end.p0(i64 8, ptr %9) #5
  call void @llvm.lifetime.end.p0(i64 8, ptr %8) #5
  store i64 %18, ptr %7, align 8, !tbaa !4
  call void @llvm.lifetime.start.p0(i64 8, ptr %10) #5
  store i64 0, ptr %10, align 8, !tbaa !4
  br label %19

19:                                               ; preds = %36, %3
  %20 = load i64, ptr %10, align 8, !tbaa !4
  %21 = load i64, ptr %7, align 8, !tbaa !4
  %22 = icmp ult i64 %20, %21
  br i1 %22, label %23, label %34

23:                                               ; preds = %19
  %24 = load ptr, ptr %5, align 8, !tbaa !31
  %25 = load i64, ptr %10, align 8, !tbaa !4
  %26 = call noundef nonnull align 1 dereferenceable(1) ptr @_ZNSt7__cxx1112basic_stringIcSt11char_traitsIcESaIcEEixEm(ptr noundef nonnull align 8 dereferenceable(32) %24, i64 noundef %25)
  %27 = load i8, ptr %26, align 1, !tbaa !86
  %28 = sext i8 %27 to i32
  %29 = load ptr, ptr %6, align 8, !tbaa !13
  %30 = load i64, ptr %10, align 8, !tbaa !4
  %31 = call noundef signext i8 @_ZNK7rocksdb5SliceixEm(ptr noundef nonnull align 8 dereferenceable(16) %29, i64 noundef %30)
  %32 = sext i8 %31 to i32
  %33 = icmp eq i32 %28, %32
  br label %34

34:                                               ; preds = %23, %19
  %35 = phi i1 [ false, %19 ], [ %33, %23 ]
  br i1 %35, label %36, label %39

36:                                               ; preds = %34
  %37 = load i64, ptr %10, align 8, !tbaa !4
  %38 = add i64 %37, 1
  store i64 %38, ptr %10, align 8, !tbaa !4
  br label %19, !llvm.loop !142

39:                                               ; preds = %34
  %40 = load i64, ptr %10, align 8, !tbaa !4
  %41 = load i64, ptr %7, align 8, !tbaa !4
  %42 = icmp eq i64 %40, %41
  br i1 %42, label %43, label %44

43:                                               ; preds = %39
  br label %68

44:                                               ; preds = %39
  call void @llvm.lifetime.start.p0(i64 1, ptr %11) #5
  %45 = load ptr, ptr %5, align 8, !tbaa !31
  %46 = load i64, ptr %10, align 8, !tbaa !4
  %47 = call noundef nonnull align 1 dereferenceable(1) ptr @_ZNSt7__cxx1112basic_stringIcSt11char_traitsIcESaIcEEixEm(ptr noundef nonnull align 8 dereferenceable(32) %45, i64 noundef %46)
  %48 = load i8, ptr %47, align 1, !tbaa !86
  store i8 %48, ptr %11, align 1, !tbaa !86
  call void @llvm.lifetime.start.p0(i64 1, ptr %12) #5
  %49 = load ptr, ptr %6, align 8, !tbaa !13
  %50 = load i64, ptr %10, align 8, !tbaa !4
  %51 = call noundef signext i8 @_ZNK7rocksdb5SliceixEm(ptr noundef nonnull align 8 dereferenceable(16) %49, i64 noundef %50)
  store i8 %51, ptr %12, align 1, !tbaa !86
  %52 = load i8, ptr %11, align 1, !tbaa !86
  %53 = zext i8 %52 to i32
  %54 = load i8, ptr %12, align 1, !tbaa !86
  %55 = zext i8 %54 to i32
  %56 = icmp sgt i32 %53, %55
  br i1 %56, label %57, label %67

57:                                               ; preds = %44
  %58 = load i64, ptr %10, align 8, !tbaa !4
  %59 = load ptr, ptr %5, align 8, !tbaa !31
  %60 = call noundef i64 @_ZNKSt7__cxx1112basic_stringIcSt11char_traitsIcESaIcEE4sizeEv(ptr noundef nonnull align 8 dereferenceable(32) %59) #5
  %61 = sub i64 %60, 1
  %62 = icmp ult i64 %58, %61
  br i1 %62, label %63, label %67

63:                                               ; preds = %57
  %64 = load ptr, ptr %5, align 8, !tbaa !31
  %65 = load i64, ptr %10, align 8, !tbaa !4
  %66 = add i64 %65, 1
  call void @_ZNSt7__cxx1112basic_stringIcSt11char_traitsIcESaIcEE6resizeEm(ptr noundef nonnull align 8 dereferenceable(32) %64, i64 noundef %66)
  br label %67

67:                                               ; preds = %63, %57, %44
  call void @llvm.lifetime.end.p0(i64 1, ptr %12) #5
  call void @llvm.lifetime.end.p0(i64 1, ptr %11) #5
  br label %68

68:                                               ; preds = %67, %43
  call void @llvm.lifetime.end.p0(i64 8, ptr %10) #5
  call void @llvm.lifetime.end.p0(i64 8, ptr %7) #5
  ret void
}