; Function Attrs: mustprogress uwtable
define internal void @_ZNK7rocksdb12_GLOBAL__N_129ReverseBytewiseComparatorImpl21FindShortestSeparatorEPNSt7__cxx1112basic_stringIcSt11char_traitsIcESaIcEEERKNS_5SliceE(ptr nonnull readnone align 8 captures(none) %0, ptr noundef %1, ptr noundef nonnull readonly align 8 captures(none) dereferenceable(16) %2) unnamed_addr #1 align 2 {
  %4 = getelementptr inbounds nuw i8, ptr %1, i64 8
  %5 = load i64, ptr %4, align 8, !tbaa !39
  %6 = getelementptr inbounds nuw i8, ptr %2, i64 8
  %7 = load i64, ptr %6, align 8, !tbaa !29
  %.sroa.speculated = tail call i64 @llvm.umin.i64(i64 %7, i64 %5)
  %.not = icmp eq i64 %.sroa.speculated, 0
  br i1 %.not, label %.critedge, label %.lr.ph

.lr.ph:                                           ; preds = %3
  %8 = load ptr, ptr %1, align 8, !tbaa !42
  %9 = load ptr, ptr %2, align 8, !tbaa !32
  br label %10

10:                                               ; preds = %.lr.ph, %16
  %.024 = phi i64 [ 0, %.lr.ph ], [ %17, %16 ]
  %11 = getelementptr inbounds nuw i8, ptr %8, i64 %.024
  %12 = load i8, ptr %11, align 1, !tbaa !45
  %13 = getelementptr inbounds nuw i8, ptr %9, i64 %.024
  %14 = load i8, ptr %13, align 1, !tbaa !45
  %15 = icmp eq i8 %12, %14
  br i1 %15, label %16, label %.critedge

16:                                               ; preds = %10
  %17 = add nuw i64 %.024, 1
  %exitcond.not = icmp eq i64 %17, %.sroa.speculated
  br i1 %exitcond.not, label %.critedge.thread, label %10, !llvm.loop !122

.critedge:                                        ; preds = %10, %3
  %.0.lcssa = phi i64 [ 0, %3 ], [ %.024, %10 ]
  %18 = icmp eq i64 %.0.lcssa, %.sroa.speculated
  br i1 %18, label %.critedge.thread, label %19

19:                                               ; preds = %.critedge
  %20 = load ptr, ptr %1, align 8, !tbaa !42
  %21 = getelementptr inbounds nuw i8, ptr %20, i64 %.0.lcssa
  %22 = load i8, ptr %21, align 1, !tbaa !45
  %23 = load ptr, ptr %2, align 8, !tbaa !32
  %24 = getelementptr inbounds nuw i8, ptr %23, i64 %.0.lcssa
  %25 = load i8, ptr %24, align 1, !tbaa !45
  %26 = icmp ugt i8 %22, %25
  %27 = add i64 %5, -1
  %28 = icmp ult i64 %.0.lcssa, %27
  %or.cond = and i1 %28, %26
  br i1 %or.cond, label %29, label %.critedge.thread

29:                                               ; preds = %19
  %30 = add nuw i64 %.0.lcssa, 1
  tail call void @_ZNSt7__cxx1112basic_stringIcSt11char_traitsIcESaIcEE6resizeEmc(ptr noundef nonnull align 8 dereferenceable(32) %1, i64 noundef %30, i8 noundef signext 0)
  br label %.critedge.thread

.critedge.thread:                                 ; preds = %16, %19, %29, %.critedge
  ret void
}